target datalayout = "e-m:e-p270:32:32-p271:32:32-p272:64:64-i64:64-i128:128-f80:128-n8:16:32:64-S128"
target triple = "x86_64-pc-linux-gnu"

%struct.H5O_shared_t = type { i32, ptr, i32, %union.anon }
%union.anon = type { %struct.H5O_mesg_loc_t }
%struct.H5O_mesg_loc_t = type { i32, i64 }
%struct.H5A_t = type { %struct.H5O_shared_t, %struct.H5O_loc_t, i8, %struct.H5G_name_t, ptr }
%struct.H5O_loc_t = type { ptr, i64, i8 }
%struct.H5G_name_t = type { ptr, ptr, i32 }
%struct.H5A_shared_t = type { i8, ptr, i32, ptr, i64, ptr, i64, ptr, i64, i32, i32 }

@H5O_init_g = external global i8, align 1
@H5_libterm_g = external global i8, align 1
@.str.1 = private unnamed_addr constant [101 x i8] c"generated/home/dtcxzyw/WorkSpace/Projects/compilers/llvm-opt-benchmark/bench/hdf5/hdf5/src/H5Oattr.c\00", align 1
@H5E_ATTR_g = external global i64, align 8
@.str.4 = private unnamed_addr constant [103 x i8] c"generated/home/dtcxzyw/WorkSpace/Projects/compilers/llvm-opt-benchmark/bench/hdf5/hdf5/src/H5Oshared.h\00", align 1
@H5E_OHDR_g = external global i64, align 8
@__func__.H5O__attr_shared_copy_file = private unnamed_addr constant [27 x i8] c"H5O__attr_shared_copy_file\00", align 1
@H5E_CANTCOPY_g = external global i64, align 8
@.str.32 = private unnamed_addr constant [46 x i8] c"unable to copy native message to another file\00", align 1
@H5E_WRITEERROR_g = external global i64, align 8
@.str.33 = private unnamed_addr constant [48 x i8] c"unable to determine if message should be shared\00", align 1
@__func__.H5O__attr_copy_file = private unnamed_addr constant [20 x i8] c"H5O__attr_copy_file\00", align 1
@H5E_CANTINIT_g = external global i64, align 8
@.str.34 = private unnamed_addr constant [26 x i8] c"invalid datatype location\00", align 1
@.str.35 = private unnamed_addr constant [21 x i8] c"can't copy attribute\00", align 1

; Function Attrs: nounwind uwtable
define internal ptr @H5O__attr_copy_file(ptr noundef %0, ptr noundef %1, ptr noundef %2, ptr noundef %3, ptr noundef %4, ptr noundef %5, ptr noundef %6) #1 {
  %8 = alloca ptr, align 8
  %9 = alloca ptr, align 8
  %10 = alloca ptr, align 8
  %11 = alloca ptr, align 8
  %12 = alloca ptr, align 8
  %13 = alloca ptr, align 8
  %14 = alloca ptr, align 8
  %15 = alloca ptr, align 8
  %16 = alloca i8, align 1
  store ptr %0, ptr %8, align 8, !tbaa !3
  store ptr %1, ptr %9, align 8, !tbaa !71
  store ptr %2, ptr %10, align 8, !tbaa !18
  store ptr %3, ptr %11, align 8, !tbaa !3
  store ptr %4, ptr %12, align 8, !tbaa !29
  store ptr %5, ptr %13, align 8, !tbaa !31
  store ptr %6, ptr %14, align 8, !tbaa !18
  call void @llvm.lifetime.start.p0(i64 8, ptr %15) #9
  store ptr null, ptr %15, align 8, !tbaa !18
  call void @llvm.lifetime.start.p0(i64 1, ptr %16) #9
  store i8 0, ptr %16, align 1, !tbaa !19
  %17 = load i8, ptr @H5O_init_g, align 1, !tbaa !19, !range !21, !noundef !22
  %18 = trunc i8 %17 to i1
  br i1 %18, label %23, label %19

19:                                               ; preds = %7
  %20 = load i8, ptr @H5_libterm_g, align 1, !tbaa !19, !range !21, !noundef !22
  %21 = trunc i8 %20 to i1
  %22 = xor i1 %21, true
  br label %23

23:                                               ; preds = %19, %7
  %24 = phi i1 [ true, %7 ], [ %22, %19 ]
  %25 = xor i1 %24, true
  %26 = xor i1 %25, true
  %27 = zext i1 %26 to i32
  %28 = sext i32 %27 to i64
  %29 = call i64 @llvm.expect.i64(i64 %28, i64 1)
  %30 = icmp ne i64 %29, 0
  br i1 %30, label %31, label %88

31:                                               ; preds = %23
  %32 = load ptr, ptr %10, align 8, !tbaa !18
  %33 = getelementptr inbounds nuw %struct.H5A_t, ptr %32, i32 0, i32 4
  %34 = load ptr, ptr %33, align 8, !tbaa !33
  %35 = getelementptr inbounds nuw %struct.H5A_shared_t, ptr %34, i32 0, i32 3
  %36 = load ptr, ptr %35, align 8, !tbaa !56
  %37 = load ptr, ptr %8, align 8, !tbaa !3
  %38 = call ptr @H5F_get_vol_obj(ptr noundef %37)
  %39 = call i32 @H5T_set_loc(ptr noundef %36, ptr noundef %38, i32 noundef 2)
  %40 = icmp slt i32 %39, 0
  br i1 %40, label %41, label %60

41:                                               ; preds = %31
  br label %42

42:                                               ; preds = %41
  br label %43

43:                                               ; preds = %42
  br label %44

44:                                               ; preds = %43
  %45 = load i64, ptr @H5E_ATTR_g, align 8, !tbaa !14
  %46 = load i64, ptr @H5E_CANTINIT_g, align 8, !tbaa !14
  %47 = call i32 (ptr, ptr, i32, i64, i64, ptr, ...) @H5E_printf_stack(ptr noundef @.str.1, ptr noundef @__func__.H5O__attr_copy_file, i32 noundef 690, i64 noundef %45, i64 noundef %46, ptr noundef @.str.34)
  br label %48

48:                                               ; preds = %44
  br label %49

49:                                               ; preds = %48
  store i8 1, ptr %16, align 1, !tbaa !19
  %50 = load i8, ptr %16, align 1, !tbaa !19, !range !21, !noundef !22
  %51 = trunc i8 %50 to i1
  %52 = zext i1 %51 to i8
  store i8 %52, ptr %16, align 1, !tbaa !19
  br label %53

53:                                               ; preds = %49
  br label %54

54:                                               ; preds = %53
  br label %55

55:                                               ; preds = %54
  store ptr null, ptr %15, align 8, !tbaa !18
  br label %87

56:                                               ; No predecessors!
  br label %57

57:                                               ; preds = %56
  br label %58

58:                                               ; preds = %57
  br label %59

59:                                               ; preds = %58
  br label %60

60:                                               ; preds = %59, %31
  %61 = load ptr, ptr %10, align 8, !tbaa !18
  %62 = load ptr, ptr %11, align 8, !tbaa !3
  %63 = load ptr, ptr %12, align 8, !tbaa !29
  %64 = load ptr, ptr %13, align 8, !tbaa !31
  %65 = call ptr @H5A__attr_copy_file(ptr noundef %61, ptr noundef %62, ptr noundef %63, ptr noundef %64)
  store ptr %65, ptr %15, align 8, !tbaa !18
  %66 = icmp eq ptr null, %65
  br i1 %66, label %67, label %86

67:                                               ; preds = %60
  br label %68

68:                                               ; preds = %67
  br label %69

69:                                               ; preds = %68
  br label %70

70:                                               ; preds = %69
  %71 = load i64, ptr @H5E_ATTR_g, align 8, !tbaa !14
  %72 = load i64, ptr @H5E_CANTCOPY_g, align 8, !tbaa !14
  %73 = call i32 (ptr, ptr, i32, i64, i64, ptr, ...) @H5E_printf_stack(ptr noundef @.str.1, ptr noundef @__func__.H5O__attr_copy_file, i32 noundef 693, i64 noundef %71, i64 noundef %72, ptr noundef @.str.35)
  br label %74

74:                                               ; preds = %70
  br label %75

75:                                               ; preds = %74
  store i8 1, ptr %16, align 1, !tbaa !19
  %76 = load i8, ptr %16, align 1, !tbaa !19, !range !21, !noundef !22
  %77 = trunc i8 %76 to i1
  %78 = zext i1 %77 to i8
  store i8 %78, ptr %16, align 1, !tbaa !19
  br label %79

79:                                               ; preds = %75
  br label %80

80:                                               ; preds = %79
  br label %81

81:                                               ; preds = %80
  store ptr null, ptr %15, align 8, !tbaa !18
  br label %87

82:                                               ; No predecessors!
  br label %83

83:                                               ; preds = %82
  br label %84

84:                                               ; preds = %83
  br label %85

85:                                               ; preds = %84
  br label %86

86:                                               ; preds = %85, %60
  br label %87

87:                                               ; preds = %86, %81, %55
  br label %88

88:                                               ; preds = %87, %23
  %89 = load ptr, ptr %15, align 8, !tbaa !18
  call void @llvm.lifetime.end.p0(i64 1, ptr %16) #9
  call void @llvm.lifetime.end.p0(i64 8, ptr %15) #9
  ret ptr %89
}

; Function Attrs: inlinehint nounwind uwtable
define internal ptr @H5O__attr_shared_copy_file(ptr noundef %0, ptr noundef %1, ptr noundef %2, ptr noundef %3, ptr noundef %4, ptr noundef %5, ptr noundef %6) #0 {
  %8 = alloca ptr, align 8
  %9 = alloca ptr, align 8
  %10 = alloca ptr, align 8
  %11 = alloca ptr, align 8
  %12 = alloca ptr, align 8
  %13 = alloca ptr, align 8
  %14 = alloca ptr, align 8
  %15 = alloca ptr, align 8
  %16 = alloca ptr, align 8
  %17 = alloca i8, align 1
  store ptr %0, ptr %8, align 8, !tbaa !3
  store ptr %1, ptr %9, align 8, !tbaa !18
  store ptr %2, ptr %10, align 8, !tbaa !3
  store ptr %3, ptr %11, align 8, !tbaa !29
  store ptr %4, ptr %12, align 8, !tbaa !12
  store ptr %5, ptr %13, align 8, !tbaa !31
  store ptr %6, ptr %14, align 8, !tbaa !18
  call void @llvm.lifetime.start.p0(i64 8, ptr %15) #9
  store ptr null, ptr %15, align 8, !tbaa !18
  call void @llvm.lifetime.start.p0(i64 8, ptr %16) #9
  store ptr null, ptr %16, align 8, !tbaa !18
  call void @llvm.lifetime.start.p0(i64 1, ptr %17) #9
  store i8 0, ptr %17, align 1, !tbaa !19
  %18 = load i8, ptr @H5O_init_g, align 1, !tbaa !19, !range !21, !noundef !22
  %19 = trunc i8 %18 to i1
  br i1 %19, label %24, label %20

20:                                               ; preds = %7
  %21 = load i8, ptr @H5_libterm_g, align 1, !tbaa !19, !range !21, !noundef !22
  %22 = trunc i8 %21 to i1
  %23 = xor i1 %22, true
  br label %24

24:                                               ; preds = %20, %7
  %25 = phi i1 [ true, %7 ], [ %23, %20 ]
  %26 = xor i1 %25, true
  %27 = xor i1 %26, true
  %28 = zext i1 %27 to i32
  %29 = sext i32 %28 to i64
  %30 = call i64 @llvm.expect.i64(i64 %29, i64 1)
  %31 = icmp ne i64 %30, 0
  br i1 %31, label %32, label %104

32:                                               ; preds = %24
  %33 = load ptr, ptr %8, align 8, !tbaa !3
  %34 = load ptr, ptr %9, align 8, !tbaa !18
  %35 = load ptr, ptr %10, align 8, !tbaa !3
  %36 = load ptr, ptr %11, align 8, !tbaa !29
  %37 = load ptr, ptr %13, align 8, !tbaa !31
  %38 = load ptr, ptr %14, align 8, !tbaa !18
  %39 = call ptr @H5O__attr_copy_file(ptr noundef %33, ptr noundef @H5O_MSG_ATTR, ptr noundef %34, ptr noundef %35, ptr noundef %36, ptr noundef %37, ptr noundef %38)
  store ptr %39, ptr %15, align 8, !tbaa !18
  %40 = icmp eq ptr null, %39
  br i1 %40, label %41, label %60

41:                                               ; preds = %32
  br label %42

42:                                               ; preds = %41
  br label %43

43:                                               ; preds = %42
  br label %44

44:                                               ; preds = %43
  %45 = load i64, ptr @H5E_OHDR_g, align 8, !tbaa !14
  %46 = load i64, ptr @H5E_CANTCOPY_g, align 8, !tbaa !14
  %47 = call i32 (ptr, ptr, i32, i64, i64, ptr, ...) @H5E_printf_stack(ptr noundef @.str.4, ptr noundef @__func__.H5O__attr_shared_copy_file, i32 noundef 309, i64 noundef %45, i64 noundef %46, ptr noundef @.str.32)
  br label %48

48:                                               ; preds = %44
  br label %49

49:                                               ; preds = %48
  store i8 1, ptr %17, align 1, !tbaa !19
  %50 = load i8, ptr %17, align 1, !tbaa !19, !range !21, !noundef !22
  %51 = trunc i8 %50 to i1
  %52 = zext i1 %51 to i8
  store i8 %52, ptr %17, align 1, !tbaa !19
  br label %53

53:                                               ; preds = %49
  br label %54

54:                                               ; preds = %53
  br label %55

55:                                               ; preds = %54
  store ptr null, ptr %16, align 8, !tbaa !18
  br label %93

56:                                               ; No predecessors!
  br label %57

57:                                               ; preds = %56
  br label %58

58:                                               ; preds = %57
  br label %59

59:                                               ; preds = %58
  br label %60

60:                                               ; preds = %59, %32
  %61 = load ptr, ptr %15, align 8, !tbaa !18
  call void @llvm.memset.p0.i64(ptr align 1 %61, i8 0, i64 40, i1 false)
  %62 = load ptr, ptr %8, align 8, !tbaa !3
  %63 = load ptr, ptr %10, align 8, !tbaa !3
  %64 = load ptr, ptr %9, align 8, !tbaa !18
  %65 = load ptr, ptr %15, align 8, !tbaa !18
  %66 = load ptr, ptr %11, align 8, !tbaa !29
  %67 = load ptr, ptr %12, align 8, !tbaa !12
  %68 = load ptr, ptr %13, align 8, !tbaa !31
  %69 = load ptr, ptr %14, align 8, !tbaa !18
  %70 = call i32 @H5O__shared_copy_file(ptr noundef %62, ptr noundef %63, ptr noundef @H5O_MSG_ATTR, ptr noundef %64, ptr noundef %65, ptr noundef %66, ptr noundef %67, ptr noundef %68, ptr noundef %69)
  %71 = icmp slt i32 %70, 0
  br i1 %71, label %72, label %91

72:                                               ; preds = %60
  br label %73

73:                                               ; preds = %72
  br label %74

74:                                               ; preds = %73
  br label %75

75:                                               ; preds = %74
  %76 = load i64, ptr @H5E_OHDR_g, align 8, !tbaa !14
  %77 = load i64, ptr @H5E_WRITEERROR_g, align 8, !tbaa !14
  %78 = call i32 (ptr, ptr, i32, i64, i64, ptr, ...) @H5E_printf_stack(ptr noundef @.str.4, ptr noundef @__func__.H5O__attr_shared_copy_file, i32 noundef 322, i64 noundef %76, i64 noundef %77, ptr noundef @.str.33)
  br label %79

79:                                               ; preds = %75
  br label %80

80:                                               ; preds = %79
  store i8 1, ptr %17, align 1, !tbaa !19
  %81 = load i8, ptr %17, align 1, !tbaa !19, !range !21, !noundef !22
  %82 = trunc i8 %81 to i1
  %83 = zext i1 %82 to i8
  store i8 %83, ptr %17, align 1, !tbaa !19
  br label %84

84:                                               ; preds = %80
  br label %85

85:                                               ; preds = %84
  br label %86

86:                                               ; preds = %85
  store ptr null, ptr %16, align 8, !tbaa !18
  br label %93

87:                                               ; No predecessors!
  br label %88

88:                                               ; preds = %87
  br label %89

89:                                               ; preds = %88
  br label %90

90:                                               ; preds = %89
  br label %91

91:                                               ; preds = %90, %60
  %92 = load ptr, ptr %15, align 8, !tbaa !18
  store ptr %92, ptr %16, align 8, !tbaa !18
  br label %93

93:                                               ; preds = %91, %86, %55
  %94 = load ptr, ptr %16, align 8, !tbaa !18
  %95 = icmp ne ptr %94, null
  br i1 %95, label %103, label %96

96:                                               ; preds = %93
  %97 = load ptr, ptr %15, align 8, !tbaa !18
  %98 = icmp ne ptr %97, null
  br i1 %98, label %99, label %102

99:                                               ; preds = %96
  %100 = load ptr, ptr %15, align 8, !tbaa !18
  %101 = call ptr @H5O_msg_free(i32 noundef 12, ptr noundef %100)
  br label %102

102:                                              ; preds = %99, %96
  br label %103

103:                                              ; preds = %102, %93
  br label %104

104:                                              ; preds = %103, %24
  %105 = load ptr, ptr %16, align 8, !tbaa !18
  call void @llvm.lifetime.end.p0(i64 1, ptr %17) #9
  call void @llvm.lifetime.end.p0(i64 8, ptr %16) #9
  call void @llvm.lifetime.end.p0(i64 8, ptr %15) #9
  ret ptr %105
}