; Function Attrs: inlinehint nounwind uwtable
define internal ptr @H5O__attr_shared_copy_file(ptr noundef %0, ptr noundef %1, ptr noundef %2, ptr noundef %3, ptr noundef %4, ptr noundef %5, ptr noundef %6) #0 {
  %8 = load i8, ptr @H5O_init_g, align 1, !tbaa !3, !range !7, !noundef !8
  %9 = trunc nuw i8 %8 to i1
  %10 = load i8, ptr @H5_libterm_g, align 1, !range !7
  %11 = trunc nuw i8 %10 to i1
  %12 = xor i1 %11, true
  %13 = select i1 %9, i1 true, i1 %12
  br i1 %13, label %14, label %.thread, !prof !9

14:                                               ; preds = %7
  %15 = getelementptr inbounds nuw i8, ptr %1, i64 96
  %16 = load ptr, ptr %15, align 8, !tbaa !14
  %17 = getelementptr inbounds nuw i8, ptr %16, i64 24
  %18 = load ptr, ptr %17, align 8, !tbaa !35
  %19 = tail call ptr @H5F_get_vol_obj(ptr noundef %0) #12
  %20 = tail call i32 @H5T_set_loc(ptr noundef %18, ptr noundef %19, i32 noundef 2) #12
  %21 = icmp slt i32 %20, 0
  br i1 %21, label %22, label %26

22:                                               ; preds = %14
  %23 = load i64, ptr @H5E_ATTR_g, align 8, !tbaa !10
  %24 = load i64, ptr @H5E_CANTINIT_g, align 8, !tbaa !10
  %25 = tail call i32 (ptr, ptr, i32, i64, i64, ptr, ...) @H5E_printf_stack(ptr noundef nonnull @.str.1, ptr noundef nonnull @__func__.H5O__attr_copy_file, i32 noundef 690, i64 noundef %23, i64 noundef %24, ptr noundef nonnull @.str.34) #12
  br label %33

26:                                               ; preds = %14
  %27 = tail call ptr @H5A__attr_copy_file(ptr noundef nonnull %1, ptr noundef %2, ptr noundef %3, ptr noundef %5) #12
  %28 = icmp eq ptr %27, null
  br i1 %28, label %29, label %H5O__attr_copy_file.exit

29:                                               ; preds = %26
  %30 = load i64, ptr @H5E_ATTR_g, align 8, !tbaa !10
  %31 = load i64, ptr @H5E_CANTCOPY_g, align 8, !tbaa !10
  %32 = tail call i32 (ptr, ptr, i32, i64, i64, ptr, ...) @H5E_printf_stack(ptr noundef nonnull @.str.1, ptr noundef nonnull @__func__.H5O__attr_copy_file, i32 noundef 693, i64 noundef %30, i64 noundef %31, ptr noundef nonnull @.str.35) #12
  br label %33

33:                                               ; preds = %22, %29
  %34 = load i64, ptr @H5E_OHDR_g, align 8, !tbaa !10
  %35 = load i64, ptr @H5E_CANTCOPY_g, align 8, !tbaa !10
  %36 = tail call i32 (ptr, ptr, i32, i64, i64, ptr, ...) @H5E_printf_stack(ptr noundef nonnull @.str.4, ptr noundef nonnull @__func__.H5O__attr_shared_copy_file, i32 noundef 309, i64 noundef %34, i64 noundef %35, ptr noundef nonnull @.str.32) #12
  br label %.thread

H5O__attr_copy_file.exit:                         ; preds = %26
  tail call void @llvm.memset.p0.i64(ptr noundef nonnull align 1 dereferenceable(40) %27, i8 0, i64 40, i1 false)
  %37 = tail call i32 @H5O__shared_copy_file(ptr noundef %0, ptr noundef %2, ptr noundef nonnull @H5O_MSG_ATTR, ptr noundef nonnull %1, ptr noundef nonnull %27, ptr noundef %3, ptr noundef %4, ptr noundef %5, ptr noundef %6) #12
  %38 = icmp slt i32 %37, 0
  br i1 %38, label %39, label %.thread

39:                                               ; preds = %H5O__attr_copy_file.exit
  %40 = load i64, ptr @H5E_OHDR_g, align 8, !tbaa !10
  %41 = load i64, ptr @H5E_WRITEERROR_g, align 8, !tbaa !10
  %42 = tail call i32 (ptr, ptr, i32, i64, i64, ptr, ...) @H5E_printf_stack(ptr noundef nonnull @.str.4, ptr noundef nonnull @__func__.H5O__attr_shared_copy_file, i32 noundef 322, i64 noundef %40, i64 noundef %41, ptr noundef nonnull @.str.33) #12
  %43 = tail call ptr @H5O_msg_free(i32 noundef 12, ptr noundef nonnull %27) #12
  br label %.thread

.thread:                                          ; preds = %33, %H5O__attr_copy_file.exit, %39, %7
  %.0 = phi ptr [ null, %39 ], [ null, %7 ], [ %27, %H5O__attr_copy_file.exit ], [ null, %33 ]
  ret ptr %.0
}